target datalayout = "e-m:e-p270:32:32-p271:32:32-p272:64:64-i64:64-i128:128-f80:128-n8:16:32:64-S128"
target triple = "x86_64-pc-linux-gnu"

%"struct.clang::extractapi::ExtendedModule" = type { %"class.llvm::json::Array", %"class.llvm::json::Array" }
%"class.llvm::json::Array" = type { %"class.std::vector" }
%"class.std::vector" = type { %"struct.std::_Vector_base" }
%"struct.std::_Vector_base" = type { %"struct.std::_Vector_base<llvm::json::Value, std::allocator<llvm::json::Value>>::_Vector_impl" }
%"struct.std::_Vector_base<llvm::json::Value, std::allocator<llvm::json::Value>>::_Vector_impl" = type { %"struct.std::_Vector_base<llvm::json::Value, std::allocator<llvm::json::Value>>::_Vector_impl_data" }
%"struct.std::_Vector_base<llvm::json::Value, std::allocator<llvm::json::Value>>::_Vector_impl_data" = type { ptr, ptr, ptr }
%"class.clang::extractapi::APISetVisitor" = type { ptr }
%"class.llvm::SmallVectorBase" = type { ptr, i32, i32 }
%"class.clang::extractapi::SymbolGraphSerializer" = type { %"class.clang::extractapi::APISetVisitor", %"struct.clang::extractapi::ExtendedModule", %"class.llvm::StringMap", i8, %"class.llvm::SmallVector", ptr, i8, i8, ptr, ptr }
%"class.llvm::StringMap" = type { %"class.llvm::StringMapImpl" }
%"class.llvm::StringMapImpl" = type { ptr, i32, i32, i32, i32 }
%"class.llvm::SmallVector" = type { %"class.llvm::SmallVectorImpl", %"struct.llvm::SmallVectorStorage" }
%"class.llvm::SmallVectorImpl" = type { %"class.llvm::SmallVectorTemplateBase" }
%"class.llvm::SmallVectorTemplateBase" = type { %"class.llvm::SmallVectorTemplateCommon" }
%"class.llvm::SmallVectorTemplateCommon" = type { %"class.llvm::SmallVectorBase" }
%"struct.llvm::SmallVectorStorage" = type { [448 x i8] }

; Function Attrs: mustprogress nounwind uwtable
define dso_local noundef nonnull align 8 dereferenceable(48) ptr @_ZN5clang10extractapi21SymbolGraphSerializer25getModuleForCurrentSymbolEv(ptr noundef nonnull align 8 dereferenceable(584) %0) #0 align 2 {
  %2 = alloca ptr, align 8
  %3 = alloca ptr, align 8
  store ptr %0, ptr %3, align 8
  %4 = load ptr, ptr %3, align 8
  %5 = getelementptr inbounds nuw %"class.clang::extractapi::SymbolGraphSerializer", ptr %4, i32 0, i32 3
  %6 = load i8, ptr %5, align 8
  %7 = trunc i8 %6 to i1
  br i1 %7, label %15, label %8

8:                                                ; preds = %1
  %9 = getelementptr inbounds nuw %"class.clang::extractapi::SymbolGraphSerializer", ptr %4, i32 0, i32 9
  %10 = load ptr, ptr %9, align 8
  %11 = icmp ne ptr %10, null
  br i1 %11, label %12, label %15

12:                                               ; preds = %8
  %13 = getelementptr inbounds nuw %"class.clang::extractapi::SymbolGraphSerializer", ptr %4, i32 0, i32 9
  %14 = load ptr, ptr %13, align 8
  store ptr %14, ptr %2, align 8
  br label %17

15:                                               ; preds = %8, %1
  %16 = getelementptr inbounds nuw %"class.clang::extractapi::SymbolGraphSerializer", ptr %4, i32 0, i32 1
  store ptr %16, ptr %2, align 8
  br label %17

17:                                               ; preds = %15, %12
  %18 = load ptr, ptr %2, align 8
  ret ptr %18
}