; Function Attrs: mustprogress nofree norecurse nosync nounwind willreturn memory(argmem: read) uwtable
define dso_local noundef nonnull align 8 dereferenceable(48) ptr @_ZN5clang10extractapi21SymbolGraphSerializer25getModuleForCurrentSymbolEv(ptr noundef nonnull readonly align 8 dereferenceable(584) %0) local_unnamed_addr #4 align 2 {
  %2 = getelementptr inbounds nuw i8, ptr %0, i64 80
  %3 = load i8, ptr %2, align 8
  %4 = trunc i8 %3 to i1
  %5 = getelementptr inbounds nuw i8, ptr %0, i64 576
  %6 = load ptr, ptr %5, align 8
  %.not = icmp eq ptr %6, null
  %or.cond = select i1 %4, i1 true, i1 %.not
  %7 = getelementptr inbounds nuw i8, ptr %0, i64 8
  %.0 = select i1 %or.cond, ptr %7, ptr %6
  ret ptr %.0
}